target datalayout = "e-m:e-p270:32:32-p271:32:32-p272:64:64-i64:64-i128:128-f80:128-n8:16:32:64-S128"
target triple = "x86_64-pc-linux-gnu"

%struct.pmix_pointer_array_t = type { %struct.pmix_object_t, i32, i32, i32, i32, i32, ptr, ptr }
%struct.pmix_object_t = type { %union.pthread_mutex_t, ptr, i32, %struct.pmix_tma }
%union.pthread_mutex_t = type { %struct.__pthread_mutex_s }
%struct.__pthread_mutex_s = type { i32, i32, i32, i32, i32, i16, i16, %struct.__pthread_internal_list }
%struct.__pthread_internal_list = type { ptr, ptr }
%struct.pmix_tma = type { ptr, ptr, ptr, ptr, ptr, ptr, ptr, ptr }
%struct.pmix_mca_base_framework_t = type { ptr, ptr, ptr, ptr, ptr, ptr, i32, i32, ptr, ptr, i32, i32, %struct.pmix_list_t, %struct.pmix_list_t }
%struct.pmix_list_t = type { %struct.pmix_object_t, %struct.pmix_list_item_t, i64 }
%struct.pmix_list_item_t = type { %struct.pmix_object_t, ptr, ptr, i32 }
%struct.pmix_output_desc_t = type { i8, i8, i32, i8, i32, ptr, ptr, i32, ptr, i32, i8, i8, i8, i8, ptr, i32, i32 }
%struct.pmix_bfrop_type_info_t = type { %struct.pmix_object_t, i16, ptr, ptr, ptr, ptr, ptr }

@pmix_bfrops_base_framework = external global %struct.pmix_mca_base_framework_t, align 8
@pmix_output_info = external global [0 x %struct.pmix_output_desc_t], align 8
@.str.13 = private unnamed_addr constant [33 x i8] c"pmix20_bfrop_unpack_status * %d\0A\00", align 1

; Function Attrs: inlinehint nounwind uwtable
define internal ptr @pmix_pointer_array_get_item(ptr noundef %0, i32 noundef %1) #3 {
  %3 = alloca ptr, align 8
  %4 = alloca ptr, align 8
  %5 = alloca i32, align 4
  %6 = alloca ptr, align 8
  %7 = alloca i32, align 4
  store ptr %0, ptr %4, align 8, !tbaa !13
  store i32 %1, ptr %5, align 4, !tbaa !11
  call void @llvm.lifetime.start.p0(i64 8, ptr %6) #11
  %8 = load i32, ptr %5, align 4, !tbaa !11
  %9 = icmp sgt i32 0, %8
  br i1 %9, label %16, label %10

10:                                               ; preds = %2
  %11 = load ptr, ptr %4, align 8, !tbaa !13
  %12 = getelementptr inbounds nuw %struct.pmix_pointer_array_t, ptr %11, i32 0, i32 3
  %13 = load i32, ptr %12, align 8, !tbaa !33
  %14 = load i32, ptr %5, align 4, !tbaa !11
  %15 = icmp sle i32 %13, %14
  br label %16

16:                                               ; preds = %10, %2
  %17 = phi i1 [ true, %2 ], [ %15, %10 ]
  %18 = xor i1 %17, true
  %19 = xor i1 %18, true
  %20 = zext i1 %19 to i32
  %21 = sext i32 %20 to i64
  %22 = call i64 @llvm.expect.i64(i64 %21, i64 0)
  %23 = icmp ne i64 %22, 0
  br i1 %23, label %24, label %25

24:                                               ; preds = %16
  store ptr null, ptr %3, align 8
  store i32 1, ptr %7, align 4
  br label %34

25:                                               ; preds = %16
  %26 = load ptr, ptr %4, align 8, !tbaa !13
  %27 = getelementptr inbounds nuw %struct.pmix_pointer_array_t, ptr %26, i32 0, i32 7
  %28 = load ptr, ptr %27, align 8, !tbaa !36
  %29 = load i32, ptr %5, align 4, !tbaa !11
  %30 = sext i32 %29 to i64
  %31 = getelementptr inbounds ptr, ptr %28, i64 %30
  %32 = load ptr, ptr %31, align 8, !tbaa !3
  store ptr %32, ptr %6, align 8, !tbaa !3
  %33 = load ptr, ptr %6, align 8, !tbaa !3
  store ptr %33, ptr %3, align 8
  store i32 1, ptr %7, align 4
  br label %34

34:                                               ; preds = %25, %24
  call void @llvm.lifetime.end.p0(i64 8, ptr %6) #11
  %35 = load ptr, ptr %3, align 8
  ret ptr %35
}

; Function Attrs: nounwind uwtable
define i32 @pmix20_bfrop_unpack_status(ptr noundef %0, ptr noundef %1, ptr noundef %2, ptr noundef %3, i16 noundef zeroext %4) #0 {
  %6 = alloca i32, align 4
  %7 = alloca ptr, align 8
  %8 = alloca ptr, align 8
  %9 = alloca ptr, align 8
  %10 = alloca ptr, align 8
  %11 = alloca i16, align 2
  %12 = alloca i32, align 4
  %13 = alloca i32, align 4
  %14 = alloca ptr, align 8
  store ptr %0, ptr %7, align 8, !tbaa !13
  store ptr %1, ptr %8, align 8, !tbaa !3
  store ptr %2, ptr %9, align 8, !tbaa !3
  store ptr %3, ptr %10, align 8, !tbaa !7
  store i16 %4, ptr %11, align 2, !tbaa !9
  call void @llvm.lifetime.start.p0(i64 4, ptr %12) #11
  %15 = load i32, ptr getelementptr inbounds nuw (%struct.pmix_mca_base_framework_t, ptr @pmix_bfrops_base_framework, i32 0, i32 11), align 4, !tbaa !15
  %16 = icmp sge i32 %15, 0
  br i1 %16, label %17, label %31

17:                                               ; preds = %5
  %18 = load i32, ptr getelementptr inbounds nuw (%struct.pmix_mca_base_framework_t, ptr @pmix_bfrops_base_framework, i32 0, i32 11), align 4, !tbaa !15
  %19 = icmp slt i32 %18, 64
  br i1 %19, label %20, label %31

20:                                               ; preds = %17
  %21 = load i32, ptr getelementptr inbounds nuw (%struct.pmix_mca_base_framework_t, ptr @pmix_bfrops_base_framework, i32 0, i32 11), align 4, !tbaa !15
  %22 = sext i32 %21 to i64
  %23 = getelementptr inbounds [0 x %struct.pmix_output_desc_t], ptr @pmix_output_info, i64 0, i64 %22
  %24 = getelementptr inbounds nuw %struct.pmix_output_desc_t, ptr %23, i32 0, i32 2
  %25 = load i32, ptr %24, align 4, !tbaa !26
  %26 = icmp sge i32 %25, 20
  br i1 %26, label %27, label %31

27:                                               ; preds = %20
  %28 = load i32, ptr getelementptr inbounds nuw (%struct.pmix_mca_base_framework_t, ptr @pmix_bfrops_base_framework, i32 0, i32 11), align 4, !tbaa !15
  %29 = load ptr, ptr %10, align 8, !tbaa !7
  %30 = load i32, ptr %29, align 4, !tbaa !11
  call void (i32, ptr, ...) @pmix_output(i32 noundef %28, ptr noundef @.str.13, i32 noundef %30)
  br label %31

31:                                               ; preds = %27, %20, %17, %5
  %32 = load ptr, ptr %8, align 8, !tbaa !3
  %33 = load ptr, ptr %10, align 8, !tbaa !7
  %34 = load i32, ptr %33, align 4, !tbaa !11
  %35 = sext i32 %34 to i64
  %36 = mul i64 %35, 4
  %37 = call zeroext i1 @pmix_bfrop_too_small(ptr noundef %32, i64 noundef %36)
  br i1 %37, label %38, label %39

38:                                               ; preds = %31
  store i32 -50, ptr %6, align 4
  store i32 1, ptr %13, align 4
  br label %59

39:                                               ; preds = %31
  br label %40

40:                                               ; preds = %39
  call void @llvm.lifetime.start.p0(i64 8, ptr %14) #11
  %41 = load ptr, ptr %7, align 8, !tbaa !13
  %42 = call ptr @pmix_pointer_array_get_item(ptr noundef %41, i32 noundef 9)
  store ptr %42, ptr %14, align 8, !tbaa !3
  %43 = load ptr, ptr %14, align 8, !tbaa !3
  %44 = icmp eq ptr null, %43
  br i1 %44, label %45, label %46

45:                                               ; preds = %40
  store i32 -16, ptr %12, align 4, !tbaa !11
  br label %55

46:                                               ; preds = %40
  %47 = load ptr, ptr %14, align 8, !tbaa !3
  %48 = getelementptr inbounds nuw %struct.pmix_bfrop_type_info_t, ptr %47, i32 0, i32 4
  %49 = load ptr, ptr %48, align 8, !tbaa !31
  %50 = load ptr, ptr %7, align 8, !tbaa !13
  %51 = load ptr, ptr %8, align 8, !tbaa !3
  %52 = load ptr, ptr %9, align 8, !tbaa !3
  %53 = load ptr, ptr %10, align 8, !tbaa !7
  %54 = call i32 %49(ptr noundef %50, ptr noundef %51, ptr noundef %52, ptr noundef %53, i16 noundef zeroext 9)
  store i32 %54, ptr %12, align 4, !tbaa !11
  br label %55

55:                                               ; preds = %46, %45
  call void @llvm.lifetime.end.p0(i64 8, ptr %14) #11
  br label %56

56:                                               ; preds = %55
  br label %57

57:                                               ; preds = %56
  %58 = load i32, ptr %12, align 4, !tbaa !11
  store i32 %58, ptr %6, align 4
  store i32 1, ptr %13, align 4
  br label %59

59:                                               ; preds = %57, %38
  call void @llvm.lifetime.end.p0(i64 4, ptr %12) #11
  %60 = load i32, ptr %6, align 4
  ret i32 %60
}